; Function Attrs: nofree nounwind uwtable
define void @Gia_ManCreateRefs(ptr noundef captures(none) initializes((144, 152)) %0) local_unnamed_addr #15 {
  %2 = getelementptr i8, ptr %0, i64 24
  %.val = load i32, ptr %2, align 8
  %3 = sext i32 %.val to i64
  %4 = tail call noalias ptr @calloc(i64 noundef %3, i64 noundef 4) #38
  %5 = getelementptr inbounds nuw i8, ptr %0, i64 144
  store ptr %4, ptr %5, align 8
  %6 = getelementptr i8, ptr %0, i64 32
  %7 = icmp sgt i32 %.val, 0
  br i1 %7, label %.lr.ph, label %.critedge

.lr.ph:                                           ; preds = %1
  %8 = getelementptr i8, ptr %0, i64 40
  br label %9

9:                                                ; preds = %.lr.ph, %Gia_ObjIsMuxId.exit.thread
  %indvars.iv = phi i64 [ 0, %.lr.ph ], [ %indvars.iv.next, %Gia_ObjIsMuxId.exit.thread ]
  %.val24 = load ptr, ptr %6, align 8
  %10 = getelementptr inbounds nuw %struct.Gia_Obj_t_, ptr %.val24, i64 %indvars.iv
  %.not = icmp eq ptr %.val24, null
  br i1 %.not, label %.critedge, label %11

11:                                               ; preds = %9
  %.val25 = load i64, ptr %10, align 4
  %12 = and i64 %.val25, 2147483648
  %.not.i = icmp eq i64 %12, 0
  %13 = and i64 %.val25, 536870911
  %14 = icmp ne i64 %13, 536870911
  %narrow.i = and i1 %.not.i, %14
  br i1 %narrow.i, label %15, label %57

15:                                               ; preds = %11
  %.val30 = load ptr, ptr %5, align 8
  %16 = sub nsw i64 0, %13
  %17 = getelementptr inbounds %struct.Gia_Obj_t_, ptr %10, i64 %16
  %18 = ptrtoint ptr %17 to i64
  %19 = ptrtoint ptr %.val24 to i64
  %20 = sub i64 %18, %19
  %21 = sdiv exact i64 %20, 12
  %sext.i.i = shl i64 %21, 32
  %22 = ashr exact i64 %sext.i.i, 30
  %23 = getelementptr inbounds i8, ptr %.val30, i64 %22
  %24 = load i32, ptr %23, align 4
  %25 = add nsw i32 %24, 1
  store i32 %25, ptr %23, align 4
  %.val28 = load i64, ptr %10, align 4
  %26 = trunc i64 %.val28 to i32
  %27 = and i32 %26, 536870911
  %28 = lshr i64 %.val28, 32
  %29 = trunc nuw i64 %28 to i32
  %30 = and i32 %29, 536870911
  %31 = icmp ne i32 %27, %30
  %.not.i35 = icmp eq i32 %27, 536870911
  %or.cond.not.i.not45 = or i1 %.not.i35, %31
  %32 = and i64 %.val28, 2147483648
  %.not4.i = icmp ne i64 %32, 0
  %narrow.i36.not = or i1 %.not4.i, %or.cond.not.i.not45
  br i1 %narrow.i36.not, label %33, label %45

33:                                               ; preds = %15
  %.val33 = load ptr, ptr %6, align 8
  %.val34 = load ptr, ptr %5, align 8
  %34 = and i64 %28, 536870911
  %35 = sub nsw i64 0, %34
  %36 = getelementptr inbounds %struct.Gia_Obj_t_, ptr %10, i64 %35
  %37 = ptrtoint ptr %36 to i64
  %38 = ptrtoint ptr %.val33 to i64
  %39 = sub i64 %37, %38
  %40 = sdiv exact i64 %39, 12
  %sext.i.i37 = shl i64 %40, 32
  %41 = ashr exact i64 %sext.i.i37, 30
  %42 = getelementptr inbounds i8, ptr %.val34, i64 %41
  %43 = load i32, ptr %42, align 4
  %44 = add nsw i32 %43, 1
  store i32 %44, ptr %42, align 4
  br label %45

45:                                               ; preds = %33, %15
  %.val26 = load ptr, ptr %8, align 8
  %.not.i38 = icmp eq ptr %.val26, null
  br i1 %.not.i38, label %Gia_ObjIsMuxId.exit.thread, label %Gia_ObjIsMuxId.exit

Gia_ObjIsMuxId.exit:                              ; preds = %45
  %46 = getelementptr inbounds nuw i32, ptr %.val26, i64 %indvars.iv
  %47 = load i32, ptr %46, align 4
  %.not46 = icmp eq i32 %47, 0
  br i1 %.not46, label %Gia_ObjIsMuxId.exit.thread, label %Gia_ObjRefFanin2Inc.exit

Gia_ObjRefFanin2Inc.exit:                         ; preds = %Gia_ObjIsMuxId.exit
  %.val.pre.i = load ptr, ptr %6, align 8
  %48 = ptrtoint ptr %10 to i64
  %49 = ptrtoint ptr %.val.pre.i to i64
  %50 = sub i64 %48, %49
  %51 = sdiv exact i64 %50, 12
  %sext.i.i39 = shl i64 %51, 32
  %52 = ashr exact i64 %sext.i.i39, 30
  %53 = getelementptr inbounds i8, ptr %.val26, i64 %52
  %54 = load i32, ptr %53, align 4
  %55 = ashr i32 %54, 1
  %56 = zext i32 %55 to i64
  br label %Gia_ObjIsMuxId.exit.thread.sink.split

57:                                               ; preds = %11
  %.not.i40 = icmp ne i64 %12, 0
  %narrow.i41 = and i1 %.not.i40, %14
  br i1 %narrow.i41, label %58, label %Gia_ObjIsMuxId.exit.thread

58:                                               ; preds = %57
  %59 = sub nsw i64 0, %13
  %60 = getelementptr inbounds %struct.Gia_Obj_t_, ptr %10, i64 %59
  %61 = ptrtoint ptr %60 to i64
  %62 = ptrtoint ptr %.val24 to i64
  %63 = sub i64 %61, %62
  %64 = sdiv exact i64 %63, 12
  br label %Gia_ObjIsMuxId.exit.thread.sink.split

Gia_ObjIsMuxId.exit.thread.sink.split:            ; preds = %58, %Gia_ObjRefFanin2Inc.exit
  %.sink = phi i64 [ %56, %Gia_ObjRefFanin2Inc.exit ], [ %64, %58 ]
  %.val3.i.sink = load ptr, ptr %5, align 8
  %sext.i4.i = shl i64 %.sink, 32
  %65 = ashr exact i64 %sext.i4.i, 30
  %66 = getelementptr inbounds i8, ptr %.val3.i.sink, i64 %65
  %67 = load i32, ptr %66, align 4
  %68 = add nsw i32 %67, 1
  store i32 %68, ptr %66, align 4
  br label %Gia_ObjIsMuxId.exit.thread

Gia_ObjIsMuxId.exit.thread:                       ; preds = %Gia_ObjIsMuxId.exit.thread.sink.split, %45, %Gia_ObjIsMuxId.exit, %57
  %indvars.iv.next = add nuw nsw i64 %indvars.iv, 1
  %69 = load i32, ptr %2, align 8
  %70 = sext i32 %69 to i64
  %71 = icmp slt i64 %indvars.iv.next, %70
  br i1 %71, label %9, label %.critedge, !llvm.loop !33

.critedge:                                        ; preds = %9, %Gia_ObjIsMuxId.exit.thread, %1
  ret void
}